; Function Attrs: mustprogress uwtable
define hidden noundef zeroext i1 @_ZN19OpenColorIO_v2_5dev8Platform6GetenvEPKcRNSt7__cxx1112basic_stringIcSt11char_traitsIcESaIcEEE(ptr noundef readonly %0, ptr noundef nonnull align 8 dereferenceable(32) %1) local_unnamed_addr #0 {
  %.not = icmp eq ptr %0, null
  br i1 %.not, label %16, label %3

3:                                                ; preds = %2
  %4 = load i8, ptr %0, align 1, !tbaa !13
  %.not11 = icmp eq i8 %4, 0
  br i1 %.not11, label %16, label %5

5:                                                ; preds = %3
  %6 = tail call ptr @getenv(ptr noundef nonnull %0) #20
  %7 = icmp ne ptr %6, null
  br i1 %7, label %8, label %10

8:                                                ; preds = %5
  %9 = load i8, ptr %6, align 1, !tbaa !13
  %.not12 = icmp eq i8 %9, 0
  %spec.select = select i1 %.not12, ptr @.str, ptr %6
  br label %10

10:                                               ; preds = %8, %5
  %11 = phi ptr [ @.str, %5 ], [ %spec.select, %8 ]
  %12 = getelementptr inbounds nuw i8, ptr %1, i64 8
  %13 = load i64, ptr %12, align 8, !tbaa !10
  %14 = tail call noundef i64 @strlen(ptr noundef nonnull dereferenceable(1) %11) #20
  %15 = tail call noundef nonnull align 8 dereferenceable(32) ptr @_ZNSt7__cxx1112basic_stringIcSt11char_traitsIcESaIcEE10_M_replaceEmmPKcm(ptr noundef nonnull align 8 dereferenceable(32) %1, i64 noundef 0, i64 noundef %13, ptr noundef nonnull %11, i64 noundef %14)
  br label %16

16:                                               ; preds = %2, %3, %10
  %.0 = phi i1 [ %7, %10 ], [ false, %3 ], [ false, %2 ]
  ret i1 %.0
}